; Function Attrs: nounwind uwtable
define ptr @l_Lean_Meta_Grind_Arith_Cutsat_resolveConflict___lambda__7___boxed(ptr noundef %0, ptr noundef %1, ptr noundef %2, ptr noundef %3, ptr noundef %4, ptr noundef %5, ptr noundef %6, ptr noundef %7, ptr noundef %8, ptr noundef %9, ptr noundef %10, ptr noundef %11, ptr noundef %12, ptr noundef %13, ptr noundef %14) local_unnamed_addr #1 {
  %16 = ptrtoint ptr %4 to i64
  %17 = lshr i64 %16, 1
  %18 = trunc i64 %17 to i8
  %19 = and i64 %16, 1
  %.not = icmp eq i64 %19, 0
  br i1 %.not, label %20, label %lean_dec.exit18

20:                                               ; preds = %15
  %21 = load i32, ptr %4, align 4, !tbaa !6
  %22 = icmp sgt i32 %21, 1
  br i1 %22, label %23, label %25, !prof !5

23:                                               ; preds = %20
  %24 = add nsw i32 %21, -1
  store i32 %24, ptr %4, align 4, !tbaa !6
  br label %lean_dec.exit18

25:                                               ; preds = %20
  %.not.i = icmp eq i32 %21, 0
  br i1 %.not.i, label %lean_dec.exit18, label %26

26:                                               ; preds = %25
  tail call void @lean_dec_ref_cold(ptr noundef nonnull %4) #6
  br label %lean_dec.exit18

lean_dec.exit18:                                  ; preds = %26, %25, %23, %15
  %27 = tail call ptr @l_Lean_Meta_Grind_Arith_Cutsat_resolveConflict___lambda__7(ptr noundef %0, ptr noundef %1, ptr noundef %2, ptr poison, i8 noundef zeroext %18, ptr noundef %5, ptr noundef %6, ptr noundef %7, ptr noundef %8, ptr noundef %9, ptr noundef %10, ptr noundef %11, ptr noundef %12, ptr noundef %13, ptr noundef %14)
  %28 = ptrtoint ptr %3 to i64
  %29 = and i64 %28, 1
  %.not21 = icmp eq i64 %29, 0
  br i1 %.not21, label %30, label %lean_dec.exit

30:                                               ; preds = %lean_dec.exit18
  %31 = load i32, ptr %3, align 4, !tbaa !6
  %32 = icmp sgt i32 %31, 1
  br i1 %32, label %33, label %35, !prof !5

33:                                               ; preds = %30
  %34 = add nsw i32 %31, -1
  store i32 %34, ptr %3, align 4, !tbaa !6
  br label %lean_dec.exit

35:                                               ; preds = %30
  %.not.i19 = icmp eq i32 %31, 0
  br i1 %.not.i19, label %lean_dec.exit, label %36

36:                                               ; preds = %35
  tail call void @lean_dec_ref_cold(ptr noundef nonnull %3) #6
  br label %lean_dec.exit

lean_dec.exit:                                    ; preds = %36, %35, %33, %lean_dec.exit18
  ret ptr %27
}